; Function Attrs: nounwind uwtable
define dso_local i64 @rlwit_discharge(ptr noundef captures(none) %0, ptr noundef %1, i64 noundef %2, i32 noundef %3) local_unnamed_addr #2 {
  %5 = getelementptr i8, ptr %0, i64 40
  %.not40 = icmp eq i64 %2, 0
  br i1 %.not40, label %.critedge, label %.lr.ph

.lr.ph:                                           ; preds = %4
  %6 = getelementptr i8, ptr %0, i64 44
  %7 = getelementptr inbounds nuw i8, ptr %0, i64 52
  %8 = getelementptr inbounds nuw i8, ptr %0, i64 24
  %9 = getelementptr inbounds nuw i8, ptr %0, i64 16
  %10 = getelementptr inbounds nuw i8, ptr %0, i64 8
  %11 = getelementptr inbounds nuw i8, ptr %0, i64 32
  %12 = getelementptr inbounds nuw i8, ptr %0, i64 48
  br label %13

13:                                               ; preds = %.lr.ph, %rlwit_discard_first_words.exit
  %.03237 = phi i64 [ 0, %.lr.ph ], [ %66, %rlwit_discard_first_words.exit ]
  %.val = load i32, ptr %5, align 8, !tbaa !18
  %.val34 = load i32, ptr %6, align 4, !tbaa !22
  %14 = sub i32 0, %.val
  %.not = icmp eq i32 %.val34, %14
  br i1 %.not, label %.critedge, label %15

15:                                               ; preds = %13
  %16 = sext i32 %.val34 to i64
  %17 = add i64 %.03237, %16
  %18 = icmp ugt i64 %17, %2
  %19 = sub i64 %2, %.03237
  %spec.select = select i1 %18, i64 %19, i64 %16
  %20 = load i32, ptr %7, align 4, !tbaa !23
  %21 = xor i32 %20, %3
  %22 = tail call i64 @ewah_add_empty_words(ptr noundef %1, i32 noundef %21, i64 noundef %spec.select) #5
  %23 = add i64 %spec.select, %.03237
  %24 = load i32, ptr %5, align 8, !tbaa !18
  %25 = sext i32 %24 to i64
  %26 = add i64 %23, %25
  %27 = icmp ugt i64 %26, %2
  %28 = sub i64 %2, %23
  %.031 = select i1 %27, i64 %28, i64 %25
  %29 = load ptr, ptr %0, align 8, !tbaa !11
  %30 = load i64, ptr %8, align 8, !tbaa !24
  %31 = getelementptr inbounds nuw i64, ptr %29, i64 %30
  tail call void @ewah_add_dirty_words(ptr noundef %1, ptr noundef %31, i64 noundef %.031, i32 noundef %3) #5
  %32 = add i64 %.031, %spec.select
  %.not42.i = icmp eq i64 %32, 0
  br i1 %.not42.i, label %rlwit_discard_first_words.exit, label %.lr.ph.i

.lr.ph.i:                                         ; preds = %15
  %.promoted.i = load i32, ptr %6, align 4, !tbaa !22
  br label %33

33:                                               ; preds = %53, %.lr.ph.i
  %34 = phi i32 [ %.promoted.i, %.lr.ph.i ], [ %62, %53 ]
  %.02443.i = phi i64 [ %32, %.lr.ph.i ], [ %48, %53 ]
  %35 = sext i32 %34 to i64
  %36 = icmp ult i64 %.02443.i, %35
  br i1 %36, label %37, label %40

37:                                               ; preds = %33
  %38 = trunc i64 %.02443.i to i32
  %39 = sub i32 %34, %38
  store i32 %39, ptr %6, align 4, !tbaa !22
  br label %rlwit_discard_first_words.exit

40:                                               ; preds = %33
  %41 = sub nuw i64 %.02443.i, %35
  store i32 0, ptr %6, align 4, !tbaa !22
  %42 = load i32, ptr %5, align 8, !tbaa !18
  %43 = sext i32 %42 to i64
  %..i = tail call i64 @llvm.umin.i64(i64 %41, i64 %43)
  %44 = load i64, ptr %8, align 8, !tbaa !24
  %45 = add i64 %..i, %44
  store i64 %45, ptr %8, align 8, !tbaa !24
  %46 = trunc i64 %..i to i32
  %47 = sub i32 %42, %46
  store i32 %47, ptr %5, align 8, !tbaa !18
  %48 = sub i64 %41, %..i
  %.not29.i = icmp ne i64 %48, 0
  %49 = icmp eq i32 %42, %46
  %or.cond.i = or i1 %.not29.i, %49
  br i1 %or.cond.i, label %50, label %rlwit_discard_first_words.exit

50:                                               ; preds = %40
  %51 = load i64, ptr %9, align 8, !tbaa !17
  %52 = load i64, ptr %10, align 8, !tbaa !16
  %.not.i.i = icmp ult i64 %51, %52
  br i1 %.not.i.i, label %53, label %rlwit_discard_first_words.exit

53:                                               ; preds = %50
  %54 = load ptr, ptr %0, align 8, !tbaa !11
  %55 = getelementptr inbounds nuw i64, ptr %54, i64 %51
  store ptr %55, ptr %11, align 8, !tbaa !20
  %.val.i.i = load i64, ptr %55, align 8, !tbaa !21
  %56 = lshr i64 %.val.i.i, 33
  %57 = add nuw i64 %51, 1
  %58 = add i64 %57, %56
  store i64 %58, ptr %9, align 8, !tbaa !17
  %.val15.i.i = load i64, ptr %55, align 8, !tbaa !21
  %59 = lshr i64 %.val15.i.i, 33
  %60 = trunc nuw nsw i64 %59 to i32
  store i32 %60, ptr %5, align 8, !tbaa !18
  %61 = lshr i64 %.val15.i.i, 1
  %62 = trunc i64 %61 to i32
  store i32 %62, ptr %6, align 4, !tbaa !22
  %63 = trunc i64 %.val15.i.i to i32
  %64 = and i32 %63, 1
  store i32 %64, ptr %7, align 4, !tbaa !23
  store i32 0, ptr %12, align 8, !tbaa !19
  %65 = sub i64 %58, %59
  store i64 %65, ptr %8, align 8, !tbaa !24
  %.not.i = icmp eq i64 %48, 0
  br i1 %.not.i, label %rlwit_discard_first_words.exit, label %33

rlwit_discard_first_words.exit:                   ; preds = %40, %50, %53, %15, %37
  %66 = add i64 %.031, %23
  %67 = icmp ult i64 %66, %2
  br i1 %67, label %13, label %.critedge, !llvm.loop !25

.critedge:                                        ; preds = %13, %rlwit_discard_first_words.exit, %4
  %.032.lcssa = phi i64 [ 0, %4 ], [ %66, %rlwit_discard_first_words.exit ], [ %.03237, %13 ]
  ret i64 %.032.lcssa
}